target datalayout = "e-m:e-p270:32:32-p271:32:32-p272:64:64-i64:64-i128:128-f80:128-n8:16:32:64-S128"
target triple = "x86_64-pc-linux-gnu"

%struct.H5VL_class_t = type { i32, i32, ptr, i32, i64, ptr, ptr, %struct.H5VL_info_class_t, %struct.H5VL_wrap_class_t, %struct.H5VL_attr_class_t, %struct.H5VL_dataset_class_t, %struct.H5VL_datatype_class_t, %struct.H5VL_file_class_t, %struct.H5VL_group_class_t, %struct.H5VL_link_class_t, %struct.H5VL_object_class_t, %struct.H5VL_introspect_class_t, %struct.H5VL_request_class_t, %struct.H5VL_blob_class_t, %struct.H5VL_token_class_t, ptr }
%struct.H5VL_info_class_t = type { i64, ptr, ptr, ptr, ptr, ptr }
%struct.H5VL_wrap_class_t = type { ptr, ptr, ptr, ptr, ptr }
%struct.H5VL_attr_class_t = type { ptr, ptr, ptr, ptr, ptr, ptr, ptr, ptr }
%struct.H5VL_dataset_class_t = type { ptr, ptr, ptr, ptr, ptr, ptr, ptr, ptr }
%struct.H5VL_datatype_class_t = type { ptr, ptr, ptr, ptr, ptr, ptr }
%struct.H5VL_file_class_t = type { ptr, ptr, ptr, ptr, ptr, ptr }
%struct.H5VL_group_class_t = type { ptr, ptr, ptr, ptr, ptr, ptr }
%struct.H5VL_link_class_t = type { ptr, ptr, ptr, ptr, ptr, ptr }
%struct.H5VL_object_class_t = type { ptr, ptr, ptr, ptr, ptr }
%struct.H5VL_introspect_class_t = type { ptr, ptr, ptr }
%struct.H5VL_request_class_t = type { ptr, ptr, ptr, ptr, ptr, ptr }
%struct.H5VL_blob_class_t = type { ptr, ptr, ptr, ptr }
%struct.H5VL_token_class_t = type { ptr, ptr, ptr }

@.str.2 = private unnamed_addr constant [101 x i8] c"generated/home/dtcxzyw/WorkSpace/Projects/compilers/llvm-opt-benchmark/bench/hdf5/hdf5/src/H5VLint.c\00", align 1
@H5E_VOL_g = external global i64, align 8
@.str.28 = private unnamed_addr constant [33 x i8] c"can't deserialize connector info\00", align 1
@H5E_BADTYPE_g = external global i64, align 8
@.str.36 = private unnamed_addr constant [23 x i8] c"not a VOL connector ID\00", align 1
@__func__.H5VL__connector_str_to_info = private unnamed_addr constant [28 x i8] c"H5VL__connector_str_to_info\00", align 1
@H5E_CANTUNSERIALIZE_g = external global i64, align 8

; Function Attrs: nounwind uwtable
define i32 @H5VL__connector_str_to_info(ptr noundef %0, i64 noundef %1, ptr noundef %2) #0 {
  %4 = alloca ptr, align 8
  %5 = alloca i64, align 8
  %6 = alloca ptr, align 8
  %7 = alloca i32, align 4
  %8 = alloca i8, align 1
  %9 = alloca ptr, align 8
  store ptr %0, ptr %4, align 8
  store i64 %1, ptr %5, align 8
  store ptr %2, ptr %6, align 8
  store i32 0, ptr %7, align 4
  store i8 0, ptr %8, align 1
  %10 = load ptr, ptr %4, align 8
  %11 = icmp ne ptr %10, null
  br i1 %11, label %12, label %65

12:                                               ; preds = %3
  %13 = load i64, ptr %5, align 8
  %14 = call ptr @H5I_object_verify(i64 noundef %13, i32 noundef 9)
  store ptr %14, ptr %9, align 8
  %15 = icmp eq ptr null, %14
  br i1 %15, label %16, label %31

16:                                               ; preds = %12
  br label %17

17:                                               ; preds = %16
  br label %18

18:                                               ; preds = %17
  br label %19

19:                                               ; preds = %18
  %20 = load i64, ptr @H5E_VOL_g, align 8
  %21 = load i64, ptr @H5E_BADTYPE_g, align 8
  %22 = call i32 (ptr, ptr, i32, i64, i64, ptr, ...) @H5E_printf_stack(ptr noundef @.str.2, ptr noundef @__func__.H5VL__connector_str_to_info, i32 noundef 1649, i64 noundef %20, i64 noundef %21, ptr noundef @.str.36)
  br label %23

23:                                               ; preds = %19
  store i8 1, ptr %8, align 1
  %24 = load i8, ptr %8, align 1
  %25 = trunc i8 %24 to i1
  %26 = zext i1 %25 to i8
  store i8 %26, ptr %8, align 1
  br label %27

27:                                               ; preds = %23
  br label %28

28:                                               ; preds = %27
  store i32 -1, ptr %7, align 4
  br label %68

29:                                               ; No predecessors!
  br label %30

30:                                               ; preds = %29
  br label %31

31:                                               ; preds = %30, %12
  %32 = load ptr, ptr %9, align 8
  %33 = getelementptr inbounds %struct.H5VL_class_t, ptr %32, i32 0, i32 7
  %34 = getelementptr inbounds %struct.H5VL_info_class_t, ptr %33, i32 0, i32 5
  %35 = load ptr, ptr %34, align 8
  %36 = icmp ne ptr %35, null
  br i1 %36, label %37, label %62

37:                                               ; preds = %31
  %38 = load ptr, ptr %9, align 8
  %39 = getelementptr inbounds %struct.H5VL_class_t, ptr %38, i32 0, i32 7
  %40 = getelementptr inbounds %struct.H5VL_info_class_t, ptr %39, i32 0, i32 5
  %41 = load ptr, ptr %40, align 8
  %42 = load ptr, ptr %4, align 8
  %43 = load ptr, ptr %6, align 8
  %44 = call i32 %41(ptr noundef %42, ptr noundef %43)
  %45 = icmp slt i32 %44, 0
  br i1 %45, label %46, label %61

46:                                               ; preds = %37
  br label %47

47:                                               ; preds = %46
  br label %48

48:                                               ; preds = %47
  br label %49

49:                                               ; preds = %48
  %50 = load i64, ptr @H5E_VOL_g, align 8
  %51 = load i64, ptr @H5E_CANTUNSERIALIZE_g, align 8
  %52 = call i32 (ptr, ptr, i32, i64, i64, ptr, ...) @H5E_printf_stack(ptr noundef @.str.2, ptr noundef @__func__.H5VL__connector_str_to_info, i32 noundef 1654, i64 noundef %50, i64 noundef %51, ptr noundef @.str.28)
  br label %53

53:                                               ; preds = %49
  store i8 1, ptr %8, align 1
  %54 = load i8, ptr %8, align 1
  %55 = trunc i8 %54 to i1
  %56 = zext i1 %55 to i8
  store i8 %56, ptr %8, align 1
  br label %57

57:                                               ; preds = %53
  br label %58

58:                                               ; preds = %57
  store i32 -1, ptr %7, align 4
  br label %68

59:                                               ; No predecessors!
  br label %60

60:                                               ; preds = %59
  br label %61

61:                                               ; preds = %60, %37
  br label %64

62:                                               ; preds = %31
  %63 = load ptr, ptr %6, align 8
  store ptr null, ptr %63, align 8
  br label %64

64:                                               ; preds = %62, %61
  br label %67

65:                                               ; preds = %3
  %66 = load ptr, ptr %6, align 8
  store ptr null, ptr %66, align 8
  br label %67

67:                                               ; preds = %65, %64
  br label %68

68:                                               ; preds = %67, %58, %28
  %69 = load i32, ptr %7, align 4
  ret i32 %69
}