; Function Attrs: nounwind uwtable
define range(i32 -1, 1) i32 @H5VL__connector_str_to_info(ptr noundef %0, i64 noundef %1, ptr noundef %2) local_unnamed_addr #0 {
  %.not = icmp eq ptr %0, null
  br i1 %.not, label %22, label %4

4:                                                ; preds = %3
  %5 = tail call ptr @H5I_object_verify(i64 noundef %1, i32 noundef 9) #10
  %6 = icmp eq ptr %5, null
  br i1 %6, label %7, label %11

7:                                                ; preds = %4
  %8 = load i64, ptr @H5E_VOL_g, align 8
  %9 = load i64, ptr @H5E_BADTYPE_g, align 8
  %10 = tail call i32 (ptr, ptr, i32, i64, i64, ptr, ...) @H5E_printf_stack(ptr noundef nonnull @.str.2, ptr noundef nonnull @__func__.H5VL__connector_str_to_info, i32 noundef 1649, i64 noundef %8, i64 noundef %9, ptr noundef nonnull @.str.36) #10
  br label %23

11:                                               ; preds = %4
  %12 = getelementptr inbounds i8, ptr %5, i64 88
  %13 = load ptr, ptr %12, align 8
  %.not13 = icmp eq ptr %13, null
  br i1 %.not13, label %21, label %14

14:                                               ; preds = %11
  %15 = tail call i32 %13(ptr noundef nonnull %0, ptr noundef %2) #10
  %16 = icmp slt i32 %15, 0
  br i1 %16, label %17, label %23

17:                                               ; preds = %14
  %18 = load i64, ptr @H5E_VOL_g, align 8
  %19 = load i64, ptr @H5E_CANTUNSERIALIZE_g, align 8
  %20 = tail call i32 (ptr, ptr, i32, i64, i64, ptr, ...) @H5E_printf_stack(ptr noundef nonnull @.str.2, ptr noundef nonnull @__func__.H5VL__connector_str_to_info, i32 noundef 1654, i64 noundef %18, i64 noundef %19, ptr noundef nonnull @.str.28) #10
  br label %23

21:                                               ; preds = %11
  store ptr null, ptr %2, align 8
  br label %23

22:                                               ; preds = %3
  store ptr null, ptr %2, align 8
  br label %23

23:                                               ; preds = %22, %14, %21, %17, %7
  %.0 = phi i32 [ -1, %7 ], [ -1, %17 ], [ 0, %14 ], [ 0, %21 ], [ 0, %22 ]
  ret i32 %.0
}